; Function Attrs: inlinehint mustprogress nofree norecurse nosync nounwind willreturn memory(readwrite, inaccessiblemem: none) uwtable
define internal fastcc void @_PyObject_GC_TRACK(ptr noundef %0) unnamed_addr #5 {
  %2 = getelementptr i8, ptr %0, i64 -16
  %3 = tail call align 8 ptr @llvm.threadlocal.address.p0(ptr align 8 @_Py_tss_tstate)
  %4 = load ptr, ptr %3, align 8, !tbaa !64
  %5 = getelementptr inbounds nuw i8, ptr %4, i64 16
  %6 = load ptr, ptr %5, align 8, !tbaa !65
  %7 = getelementptr inbounds nuw i8, ptr %6, i64 7424
  %8 = getelementptr inbounds nuw i8, ptr %6, i64 7432
  %9 = load i64, ptr %8, align 8, !tbaa !66
  %10 = inttoptr i64 %9 to ptr
  %11 = ptrtoint ptr %2 to i64
  %12 = load i64, ptr %10, align 8, !tbaa !68
  %13 = and i64 %12, 3
  %14 = or i64 %13, %11
  store i64 %14, ptr %10, align 8, !tbaa !68
  %15 = getelementptr i8, ptr %0, i64 -8
  %16 = load i64, ptr %15, align 8, !tbaa !66
  %17 = and i64 %16, 3
  %18 = or i64 %17, %9
  store i64 %18, ptr %15, align 8, !tbaa !66
  %19 = getelementptr inbounds nuw i8, ptr %6, i64 7632
  %20 = load i32, ptr %19, align 8, !tbaa !69
  %21 = xor i32 %20, 1
  %22 = sext i32 %21 to i64
  %23 = ptrtoint ptr %7 to i64
  %24 = or i64 %22, %23
  store i64 %24, ptr %2, align 8, !tbaa !68
  store i64 %11, ptr %8, align 8, !tbaa !66
  ret void
}